target datalayout = "e-m:e-p270:32:32-p271:32:32-p272:64:64-i64:64-i128:128-f80:128-n8:16:32:64-S128"
target triple = "x86_64-unknown-linux-gnu"

%struct.ecc_set_type = type { i32, i32, ptr, ptr, ptr, ptr, ptr, ptr, ptr, ptr, i32, i32, i32 }
%struct.ecc_point = type { [1 x %struct.sp_int], [1 x %struct.sp_int], [1 x %struct.sp_int] }
%struct.sp_int = type { i32, i32, [129 x i64] }

; Function Attrs: nounwind uwtable
define i32 @wc_ecc_is_valid_idx(i32 noundef %n) #0 {
entry:
  %retval = alloca i32, align 4
  %n.addr = alloca i32, align 4
  %x = alloca i32, align 4
  store i32 %n, ptr %n.addr, align 4
  %0 = load i32, ptr %n.addr, align 4
  %cmp = icmp sge i32 %0, 6
  br i1 %cmp, label %if.then, label %if.end

if.then:                                          ; preds = %entry
  store i32 0, ptr %retval, align 4
  br label %return

if.end:                                           ; preds = %entry
  store i32 0, ptr %x, align 4
  br label %for.cond

for.cond:                                         ; preds = %for.inc, %if.end
  %1 = load i32, ptr %x, align 4
  %idxprom = sext i32 %1 to i64
  %arrayidx = getelementptr inbounds [6 x %struct.ecc_set_type], ptr @ecc_sets, i64 0, i64 %idxprom
  %size = getelementptr inbounds %struct.ecc_set_type, ptr %arrayidx, i32 0, i32 0
  %2 = load i32, ptr %size, align 8
  %cmp1 = icmp ne i32 %2, 0
  br i1 %cmp1, label %for.body, label %for.end

for.body:                                         ; preds = %for.cond
  br label %for.inc

for.inc:                                          ; preds = %for.body
  %3 = load i32, ptr %x, align 4
  %inc = add nsw i32 %3, 1
  store i32 %inc, ptr %x, align 4
  br label %for.cond, !llvm.loop !12

for.end:                                          ; preds = %for.cond
  %4 = load i32, ptr %n.addr, align 4
  %cmp2 = icmp sge i32 %4, -1
  br i1 %cmp2, label %land.lhs.true, label %if.end5

land.lhs.true:                                    ; preds = %for.end
  %5 = load i32, ptr %n.addr, align 4
  %6 = load i32, ptr %x, align 4
  %cmp3 = icmp slt i32 %5, %6
  br i1 %cmp3, label %if.then4, label %if.end5

if.then4:                                         ; preds = %land.lhs.true
  store i32 1, ptr %retval, align 4
  br label %return

if.end5:                                          ; preds = %land.lhs.true, %for.end
  store i32 0, ptr %retval, align 4
  br label %return

return:                                           ; preds = %if.end5, %if.then4, %if.then
  %7 = load i32, ptr %retval, align 4
  ret i32 %7
}

; Function Attrs: nounwind uwtable
define i32 @wc_ecc_export_point_der(i32 noundef %curve_idx, ptr noundef %point, ptr noundef %out, ptr noundef %outLen) #0 {
entry:
  %retval = alloca i32, align 4
  %curve_idx.addr = alloca i32, align 4
  %point.addr = alloca ptr, align 8
  %out.addr = alloca ptr, align 8
  %outLen.addr = alloca ptr, align 8
  %ret = alloca i32, align 4
  %numlen = alloca i32, align 4
  %buf = alloca [257 x i8], align 16
  store i32 %curve_idx, ptr %curve_idx.addr, align 4
  store ptr %point, ptr %point.addr, align 8
  store ptr %out, ptr %out.addr, align 8
  store ptr %outLen, ptr %outLen.addr, align 8
  store i32 0, ptr %ret, align 4
  %0 = load i32, ptr %curve_idx.addr, align 4
  %cmp = icmp slt i32 %0, 0
  br i1 %cmp, label %if.then, label %lor.lhs.false

lor.lhs.false:                                    ; preds = %entry
  %1 = load i32, ptr %curve_idx.addr, align 4
  %call = call i32 @wc_ecc_is_valid_idx(i32 noundef %1)
  %cmp1 = icmp eq i32 %call, 0
  br i1 %cmp1, label %if.then, label %if.end

if.then:                                          ; preds = %lor.lhs.false, %entry
  store i32 -170, ptr %retval, align 4
  br label %return

if.end:                                           ; preds = %lor.lhs.false
  %2 = load i32, ptr %curve_idx.addr, align 4
  %idxprom = sext i32 %2 to i64
  %arrayidx = getelementptr inbounds [6 x %struct.ecc_set_type], ptr @ecc_sets, i64 0, i64 %idxprom
  %size = getelementptr inbounds %struct.ecc_set_type, ptr %arrayidx, i32 0, i32 0
  %3 = load i32, ptr %size, align 8
  store i32 %3, ptr %numlen, align 4
  %4 = load ptr, ptr %point.addr, align 8
  %cmp2 = icmp ne ptr %4, null
  br i1 %cmp2, label %land.lhs.true, label %if.end7

land.lhs.true:                                    ; preds = %if.end
  %5 = load ptr, ptr %out.addr, align 8
  %cmp3 = icmp eq ptr %5, null
  br i1 %cmp3, label %land.lhs.true4, label %if.end7

land.lhs.true4:                                   ; preds = %land.lhs.true
  %6 = load ptr, ptr %outLen.addr, align 8
  %cmp5 = icmp ne ptr %6, null
  br i1 %cmp5, label %if.then6, label %if.end7

if.then6:                                         ; preds = %land.lhs.true4
  %7 = load i32, ptr %numlen, align 4
  %mul = mul i32 2, %7
  %add = add i32 1, %mul
  %8 = load ptr, ptr %outLen.addr, align 8
  store i32 %add, ptr %8, align 4
  store i32 -202, ptr %retval, align 4
  br label %return

if.end7:                                          ; preds = %land.lhs.true4, %land.lhs.true, %if.end
  %9 = load ptr, ptr %point.addr, align 8
  %cmp8 = icmp eq ptr %9, null
  br i1 %cmp8, label %if.then13, label %lor.lhs.false9

lor.lhs.false9:                                   ; preds = %if.end7
  %10 = load ptr, ptr %out.addr, align 8
  %cmp10 = icmp eq ptr %10, null
  br i1 %cmp10, label %if.then13, label %lor.lhs.false11

lor.lhs.false11:                                  ; preds = %lor.lhs.false9
  %11 = load ptr, ptr %outLen.addr, align 8
  %cmp12 = icmp eq ptr %11, null
  br i1 %cmp12, label %if.then13, label %if.end14

if.then13:                                        ; preds = %lor.lhs.false11, %lor.lhs.false9, %if.end7
  store i32 -170, ptr %retval, align 4
  br label %return

if.end14:                                         ; preds = %lor.lhs.false11
  %12 = load ptr, ptr %outLen.addr, align 8
  %13 = load i32, ptr %12, align 4
  %14 = load i32, ptr %numlen, align 4
  %mul15 = mul i32 2, %14
  %add16 = add i32 1, %mul15
  %cmp17 = icmp ult i32 %13, %add16
  br i1 %cmp17, label %if.then18, label %if.end21

if.then18:                                        ; preds = %if.end14
  %15 = load i32, ptr %numlen, align 4
  %mul19 = mul i32 2, %15
  %add20 = add i32 1, %mul19
  %16 = load ptr, ptr %outLen.addr, align 8
  store i32 %add20, ptr %16, align 4
  store i32 -132, ptr %retval, align 4
  br label %return

if.end21:                                         ; preds = %if.end14
  %17 = load ptr, ptr %point.addr, align 8
  %x = getelementptr inbounds %struct.ecc_point, ptr %17, i32 0, i32 0
  %arraydecay = getelementptr inbounds [1 x %struct.sp_int], ptr %x, i64 0, i64 0
  %call22 = call i32 @sp_unsigned_bin_size(ptr noundef %arraydecay)
  %18 = load i32, ptr %numlen, align 4
  %cmp23 = icmp ugt i32 %call22, %18
  br i1 %cmp23, label %if.then28, label %lor.lhs.false24

lor.lhs.false24:                                  ; preds = %if.end21
  %19 = load ptr, ptr %point.addr, align 8
  %y = getelementptr inbounds %struct.ecc_point, ptr %19, i32 0, i32 1
  %arraydecay25 = getelementptr inbounds [1 x %struct.sp_int], ptr %y, i64 0, i64 0
  %call26 = call i32 @sp_unsigned_bin_size(ptr noundef %arraydecay25)
  %20 = load i32, ptr %numlen, align 4
  %cmp27 = icmp ugt i32 %call26, %20
  br i1 %cmp27, label %if.then28, label %if.end29

if.then28:                                        ; preds = %lor.lhs.false24, %if.end21
  store i32 -170, ptr %retval, align 4
  br label %return

if.end29:                                         ; preds = %lor.lhs.false24
  %21 = load ptr, ptr %out.addr, align 8
  %arrayidx30 = getelementptr inbounds i8, ptr %21, i64 0
  store i8 4, ptr %arrayidx30, align 1
  %arraydecay31 = getelementptr inbounds [257 x i8], ptr %buf, i64 0, i64 0
  call void @llvm.memset.p0.i64(ptr align 16 %arraydecay31, i8 0, i64 257, i1 false)
  %22 = load ptr, ptr %point.addr, align 8
  %x32 = getelementptr inbounds %struct.ecc_point, ptr %22, i32 0, i32 0
  %arraydecay33 = getelementptr inbounds [1 x %struct.sp_int], ptr %x32, i64 0, i64 0
  %arraydecay34 = getelementptr inbounds [257 x i8], ptr %buf, i64 0, i64 0
  %23 = load i32, ptr %numlen, align 4
  %24 = load ptr, ptr %point.addr, align 8
  %x35 = getelementptr inbounds %struct.ecc_point, ptr %24, i32 0, i32 0
  %arraydecay36 = getelementptr inbounds [1 x %struct.sp_int], ptr %x35, i64 0, i64 0
  %call37 = call i32 @sp_unsigned_bin_size(ptr noundef %arraydecay36)
  %sub = sub i32 %23, %call37
  %idx.ext = zext i32 %sub to i64
  %add.ptr = getelementptr inbounds i8, ptr %arraydecay34, i64 %idx.ext
  %call38 = call i32 @sp_to_unsigned_bin(ptr noundef %arraydecay33, ptr noundef %add.ptr)
  store i32 %call38, ptr %ret, align 4
  %25 = load i32, ptr %ret, align 4
  %cmp39 = icmp ne i32 %25, 0
  br i1 %cmp39, label %if.then40, label %if.end41

if.then40:                                        ; preds = %if.end29
  br label %done

if.end41:                                         ; preds = %if.end29
  %26 = load ptr, ptr %out.addr, align 8
  %add.ptr42 = getelementptr inbounds i8, ptr %26, i64 1
  %arraydecay43 = getelementptr inbounds [257 x i8], ptr %buf, i64 0, i64 0
  %27 = load i32, ptr %numlen, align 4
  %conv = zext i32 %27 to i64
  call void @llvm.memcpy.p0.p0.i64(ptr align 1 %add.ptr42, ptr align 16 %arraydecay43, i64 %conv, i1 false)
  %arraydecay44 = getelementptr inbounds [257 x i8], ptr %buf, i64 0, i64 0
  call void @llvm.memset.p0.i64(ptr align 16 %arraydecay44, i8 0, i64 257, i1 false)
  %28 = load ptr, ptr %point.addr, align 8
  %y45 = getelementptr inbounds %struct.ecc_point, ptr %28, i32 0, i32 1
  %arraydecay46 = getelementptr inbounds [1 x %struct.sp_int], ptr %y45, i64 0, i64 0
  %arraydecay47 = getelementptr inbounds [257 x i8], ptr %buf, i64 0, i64 0
  %29 = load i32, ptr %numlen, align 4
  %30 = load ptr, ptr %point.addr, align 8
  %y48 = getelementptr inbounds %struct.ecc_point, ptr %30, i32 0, i32 1
  %arraydecay49 = getelementptr inbounds [1 x %struct.sp_int], ptr %y48, i64 0, i64 0
  %call50 = call i32 @sp_unsigned_bin_size(ptr noundef %arraydecay49)
  %sub51 = sub i32 %29, %call50
  %idx.ext52 = zext i32 %sub51 to i64
  %add.ptr53 = getelementptr inbounds i8, ptr %arraydecay47, i64 %idx.ext52
  %call54 = call i32 @sp_to_unsigned_bin(ptr noundef %arraydecay46, ptr noundef %add.ptr53)
  store i32 %call54, ptr %ret, align 4
  %31 = load i32, ptr %ret, align 4
  %cmp55 = icmp ne i32 %31, 0
  br i1 %cmp55, label %if.then57, label %if.end58

if.then57:                                        ; preds = %if.end41
  br label %done

if.end58:                                         ; preds = %if.end41
  %32 = load ptr, ptr %out.addr, align 8
  %add.ptr59 = getelementptr inbounds i8, ptr %32, i64 1
  %33 = load i32, ptr %numlen, align 4
  %idx.ext60 = zext i32 %33 to i64
  %add.ptr61 = getelementptr inbounds i8, ptr %add.ptr59, i64 %idx.ext60
  %arraydecay62 = getelementptr inbounds [257 x i8], ptr %buf, i64 0, i64 0
  %34 = load i32, ptr %numlen, align 4
  %conv63 = zext i32 %34 to i64
  call void @llvm.memcpy.p0.p0.i64(ptr align 1 %add.ptr61, ptr align 16 %arraydecay62, i64 %conv63, i1 false)
  %35 = load i32, ptr %numlen, align 4
  %mul64 = mul i32 2, %35
  %add65 = add i32 1, %mul64
  %36 = load ptr, ptr %outLen.addr, align 8
  store i32 %add65, ptr %36, align 4
  br label %done

done:                                             ; preds = %if.end58, %if.then57, %if.then40
  %37 = load i32, ptr %ret, align 4
  store i32 %37, ptr %retval, align 4
  br label %return

return:                                           ; preds = %done, %if.then28, %if.then18, %if.then13, %if.then6, %if.then
  %38 = load i32, ptr %retval, align 4
  ret i32 %38
}