; Function Attrs: nounwind uwtable
define i32 @wc_ecc_export_point_der(i32 noundef %curve_idx, ptr noundef %point, ptr noundef writeonly %out, ptr noundef %outLen) local_unnamed_addr #2 {
entry:
  %buf = alloca [257 x i8], align 16
  %narrow.i = icmp ugt i32 %curve_idx, 4
  br i1 %narrow.i, label %return, label %if.end

if.end:                                           ; preds = %entry
  %idxprom = zext nneg i32 %curve_idx to i64
  %arrayidx = getelementptr inbounds nuw [6 x %struct.ecc_set_type], ptr @ecc_sets, i64 0, i64 %idxprom
  %0 = load i32, ptr %arrayidx, align 8
  %cmp2 = icmp ne ptr %point, null
  %cmp3 = icmp eq ptr %out, null
  %cmp5 = icmp ne ptr %outLen, null
  %1 = and i1 %cmp2, %cmp5
  %or.cond1 = and i1 %cmp3, %1
  br i1 %or.cond1, label %if.then6, label %if.end7

if.then6:                                         ; preds = %if.end
  %mul = shl i32 %0, 1
  br label %return.sink.split

if.end7:                                          ; preds = %if.end
  %cmp8 = icmp eq ptr %point, null
  %cmp12 = icmp eq ptr %outLen, null
  %2 = or i1 %cmp8, %cmp12
  %or.cond3 = or i1 %cmp3, %2
  br i1 %or.cond3, label %return, label %if.end14

if.end14:                                         ; preds = %if.end7
  %3 = load i32, ptr %outLen, align 4
  %mul15 = shl i32 %0, 1
  %cmp17.not = icmp ugt i32 %3, %mul15
  br i1 %cmp17.not, label %if.end21, label %return.sink.split

if.end21:                                         ; preds = %if.end14
  %call22 = tail call i32 @sp_unsigned_bin_size(ptr noundef nonnull %point) #19
  %cmp23 = icmp ugt i32 %call22, %0
  br i1 %cmp23, label %return, label %lor.lhs.false24

lor.lhs.false24:                                  ; preds = %if.end21
  %y = getelementptr inbounds nuw i8, ptr %point, i64 1040
  %call26 = tail call i32 @sp_unsigned_bin_size(ptr noundef nonnull %y) #19
  %cmp27 = icmp ugt i32 %call26, %0
  br i1 %cmp27, label %return, label %if.end29

if.end29:                                         ; preds = %lor.lhs.false24
  store i8 4, ptr %out, align 1
  call void @llvm.memset.p0.i64(ptr noundef nonnull align 16 dereferenceable(257) %buf, i8 0, i64 257, i1 false)
  %call37 = tail call i32 @sp_unsigned_bin_size(ptr noundef nonnull %point) #19
  %sub = sub i32 %0, %call37
  %idx.ext = zext i32 %sub to i64
  %add.ptr = getelementptr inbounds nuw i8, ptr %buf, i64 %idx.ext
  %call38 = call i32 @sp_to_unsigned_bin(ptr noundef nonnull %point, ptr noundef nonnull %add.ptr) #19
  %cmp39.not = icmp eq i32 %call38, 0
  br i1 %cmp39.not, label %if.end41, label %return

if.end41:                                         ; preds = %if.end29
  %add.ptr42 = getelementptr inbounds nuw i8, ptr %out, i64 1
  %conv = zext i32 %0 to i64
  call void @llvm.memcpy.p0.p0.i64(ptr nonnull align 1 %add.ptr42, ptr nonnull align 16 %buf, i64 %conv, i1 false)
  call void @llvm.memset.p0.i64(ptr noundef nonnull align 16 dereferenceable(257) %buf, i8 0, i64 257, i1 false)
  %call50 = call i32 @sp_unsigned_bin_size(ptr noundef nonnull %y) #19
  %sub51 = sub i32 %0, %call50
  %idx.ext52 = zext i32 %sub51 to i64
  %add.ptr53 = getelementptr inbounds nuw i8, ptr %buf, i64 %idx.ext52
  %call54 = call i32 @sp_to_unsigned_bin(ptr noundef nonnull %y, ptr noundef nonnull %add.ptr53) #19
  %cmp55.not = icmp eq i32 %call54, 0
  br i1 %cmp55.not, label %if.end58, label %return

if.end58:                                         ; preds = %if.end41
  %add.ptr61 = getelementptr inbounds nuw i8, ptr %add.ptr42, i64 %conv
  call void @llvm.memcpy.p0.p0.i64(ptr nonnull align 1 %add.ptr61, ptr nonnull align 16 %buf, i64 %conv, i1 false)
  br label %return.sink.split

return.sink.split:                                ; preds = %if.end14, %if.then6, %if.end58
  %add16.sink.in = phi i32 [ %mul15, %if.end58 ], [ %mul, %if.then6 ], [ %mul15, %if.end14 ]
  %retval.0.ph = phi i32 [ 0, %if.end58 ], [ -202, %if.then6 ], [ -132, %if.end14 ]
  %add16.sink = or disjoint i32 %add16.sink.in, 1
  store i32 %add16.sink, ptr %outLen, align 4
  br label %return

return:                                           ; preds = %return.sink.split, %if.end29, %if.end41, %if.end21, %lor.lhs.false24, %if.end7, %entry
  %retval.0 = phi i32 [ -170, %entry ], [ -170, %if.end7 ], [ -170, %lor.lhs.false24 ], [ -170, %if.end21 ], [ %call38, %if.end29 ], [ %call54, %if.end41 ], [ %retval.0.ph, %return.sink.split ]
  ret i32 %retval.0
}